; Function Attrs: mustprogress uwtable
define hidden noundef ptr @pj_gnom(ptr noundef %0) local_unnamed_addr #0 {
  %.not = icmp eq ptr %0, null
  br i1 %.not, label %38, label %2

2:                                                ; preds = %1
  %3 = tail call noalias dereferenceable_or_null(432) ptr @calloc(i64 noundef 1, i64 noundef 432) #8
  %4 = icmp eq ptr %3, null
  br i1 %4, label %5, label %7

5:                                                ; preds = %2
  %6 = tail call noundef ptr @_Z21pj_default_destructorP8PJconstsi(ptr noundef nonnull %0, i32 noundef 4096)
  br label %_Z33pj_projection_specific_setup_gnomP8PJconsts.exit

7:                                                ; preds = %2
  %8 = getelementptr inbounds nuw i8, ptr %0, i64 88
  store ptr %3, ptr %8, align 8, !tbaa !3
  %9 = getelementptr inbounds nuw i8, ptr %0, i64 216
  %10 = load double, ptr %9, align 8, !tbaa !36
  %11 = fcmp oeq double %10, 0.000000e+00
  br i1 %11, label %12, label %31

12:                                               ; preds = %7
  %13 = getelementptr inbounds nuw i8, ptr %0, i64 448
  %14 = load double, ptr %13, align 8, !tbaa !37
  %15 = tail call double @llvm.fabs.f64(double %14)
  %16 = fadd double %15, 0xBFF921FB54442D18
  %17 = tail call double @llvm.fabs.f64(double %16)
  %18 = fcmp olt double %17, 1.000000e-10
  br i1 %18, label %19, label %23

19:                                               ; preds = %12
  %20 = fcmp olt double %14, 0.000000e+00
  %21 = zext i1 %20 to i32
  %22 = getelementptr inbounds nuw i8, ptr %3, i64 16
  store i32 %21, ptr %22, align 8, !tbaa !38
  br label %35

23:                                               ; preds = %12
  %24 = fcmp olt double %15, 1.000000e-10
  %25 = getelementptr inbounds nuw i8, ptr %3, i64 16
  br i1 %24, label %26, label %27

26:                                               ; preds = %23
  store i32 2, ptr %25, align 8, !tbaa !38
  br label %35

27:                                               ; preds = %23
  store i32 3, ptr %25, align 8, !tbaa !38
  %28 = tail call double @sin(double noundef %14) #9, !tbaa !42
  store double %28, ptr %3, align 8, !tbaa !43
  %29 = tail call double @cos(double noundef %14) #9, !tbaa !42
  %30 = getelementptr inbounds nuw i8, ptr %3, i64 8
  store double %29, ptr %30, align 8, !tbaa !44
  br label %35

31:                                               ; preds = %7
  %32 = getelementptr inbounds nuw i8, ptr %3, i64 24
  %33 = getelementptr inbounds nuw i8, ptr %0, i64 272
  %34 = load double, ptr %33, align 8, !tbaa !45
  tail call void @geod_init(ptr noundef nonnull %32, double noundef 1.000000e+00, double noundef %34)
  br label %35

35:                                               ; preds = %31, %27, %26, %19
  %_ZL14gnom_e_inverse5PJ_XYP8PJconsts.sink.i = phi ptr [ @_ZL14gnom_e_inverse5PJ_XYP8PJconsts, %31 ], [ @_ZL14gnom_s_inverse5PJ_XYP8PJconsts, %26 ], [ @_ZL14gnom_s_inverse5PJ_XYP8PJconsts, %27 ], [ @_ZL14gnom_s_inverse5PJ_XYP8PJconsts, %19 ]
  %_ZL14gnom_e_forward5PJ_LPP8PJconsts.sink.i = phi ptr [ @_ZL14gnom_e_forward5PJ_LPP8PJconsts, %31 ], [ @_ZL14gnom_s_forward5PJ_LPP8PJconsts, %26 ], [ @_ZL14gnom_s_forward5PJ_LPP8PJconsts, %27 ], [ @_ZL14gnom_s_forward5PJ_LPP8PJconsts, %19 ]
  %36 = getelementptr inbounds nuw i8, ptr %0, i64 112
  store ptr %_ZL14gnom_e_inverse5PJ_XYP8PJconsts.sink.i, ptr %36, align 8, !tbaa !46
  %37 = getelementptr inbounds nuw i8, ptr %0, i64 104
  store ptr %_ZL14gnom_e_forward5PJ_LPP8PJconsts.sink.i, ptr %37, align 8, !tbaa !47
  store double 0.000000e+00, ptr %9, align 8, !tbaa !36
  br label %_Z33pj_projection_specific_setup_gnomP8PJconsts.exit

38:                                               ; preds = %1
  %39 = tail call noundef ptr @_Z6pj_newv()
  %40 = icmp eq ptr %39, null
  br i1 %40, label %_Z33pj_projection_specific_setup_gnomP8PJconsts.exit, label %41

41:                                               ; preds = %38
  %42 = getelementptr inbounds nuw i8, ptr %39, i64 8
  store ptr @.str, ptr %42, align 8, !tbaa !48
  %43 = getelementptr inbounds nuw i8, ptr %39, i64 16
  store ptr @_ZL8des_gnom, ptr %43, align 8, !tbaa !49
  %44 = getelementptr inbounds nuw i8, ptr %39, i64 360
  store i32 1, ptr %44, align 8, !tbaa !50
  %45 = getelementptr inbounds nuw i8, ptr %39, i64 380
  store i32 4, ptr %45, align 4, !tbaa !51
  %46 = getelementptr inbounds nuw i8, ptr %39, i64 384
  store i32 1, ptr %46, align 8, !tbaa !52
  br label %_Z33pj_projection_specific_setup_gnomP8PJconsts.exit

_Z33pj_projection_specific_setup_gnomP8PJconsts.exit: ; preds = %35, %5, %38, %41
  %.0 = phi ptr [ %39, %41 ], [ null, %38 ], [ %6, %5 ], [ %0, %35 ]
  ret ptr %.0
}